target datalayout = "e-m:e-p270:32:32-p271:32:32-p272:64:64-i64:64-i128:128-f80:128-n8:16:32:64-S128"
target triple = "x86_64-pc-linux-gnu"

%struct.H5G_dense_bt2_name_rec_t = type { [7 x i8], i32 }

@H5G_init_g = external global i8, align 1
@H5_libterm_g = external global i8, align 1

; Function Attrs: nounwind uwtable
define internal i32 @H5G__dense_btree2_name_encode(ptr noundef %0, ptr noundef %1, ptr noundef %2) #0 {
  %4 = alloca ptr, align 8
  %5 = alloca ptr, align 8
  %6 = alloca ptr, align 8
  %7 = alloca ptr, align 8
  store ptr %0, ptr %4, align 8, !tbaa !43
  store ptr %1, ptr %5, align 8, !tbaa !3
  store ptr %2, ptr %6, align 8, !tbaa !3
  call void @llvm.lifetime.start.p0(i64 8, ptr %7) #7
  %8 = load ptr, ptr %5, align 8, !tbaa !3
  store ptr %8, ptr %7, align 8, !tbaa !9
  %9 = load i8, ptr @H5G_init_g, align 1, !tbaa !11, !range !13, !noundef !14
  %10 = trunc i8 %9 to i1
  br i1 %10, label %15, label %11

11:                                               ; preds = %3
  %12 = load i8, ptr @H5_libterm_g, align 1, !tbaa !11, !range !13, !noundef !14
  %13 = trunc i8 %12 to i1
  %14 = xor i1 %13, true
  br label %15

15:                                               ; preds = %11, %3
  %16 = phi i1 [ true, %3 ], [ %14, %11 ]
  %17 = xor i1 %16, true
  %18 = xor i1 %17, true
  %19 = zext i1 %18 to i32
  %20 = sext i32 %19 to i64
  %21 = call i64 @llvm.expect.i64(i64 %20, i64 1)
  %22 = icmp ne i64 %21, 0
  br i1 %22, label %23, label %66

23:                                               ; preds = %15
  br label %24

24:                                               ; preds = %23
  %25 = load ptr, ptr %7, align 8, !tbaa !9
  %26 = getelementptr inbounds nuw %struct.H5G_dense_bt2_name_rec_t, ptr %25, i32 0, i32 1
  %27 = load i32, ptr %26, align 4, !tbaa !23
  %28 = and i32 %27, 255
  %29 = trunc i32 %28 to i8
  %30 = load ptr, ptr %4, align 8, !tbaa !43
  store i8 %29, ptr %30, align 1, !tbaa !44
  %31 = load ptr, ptr %4, align 8, !tbaa !43
  %32 = getelementptr inbounds nuw i8, ptr %31, i32 1
  store ptr %32, ptr %4, align 8, !tbaa !43
  %33 = load ptr, ptr %7, align 8, !tbaa !9
  %34 = getelementptr inbounds nuw %struct.H5G_dense_bt2_name_rec_t, ptr %33, i32 0, i32 1
  %35 = load i32, ptr %34, align 4, !tbaa !23
  %36 = lshr i32 %35, 8
  %37 = and i32 %36, 255
  %38 = trunc i32 %37 to i8
  %39 = load ptr, ptr %4, align 8, !tbaa !43
  store i8 %38, ptr %39, align 1, !tbaa !44
  %40 = load ptr, ptr %4, align 8, !tbaa !43
  %41 = getelementptr inbounds nuw i8, ptr %40, i32 1
  store ptr %41, ptr %4, align 8, !tbaa !43
  %42 = load ptr, ptr %7, align 8, !tbaa !9
  %43 = getelementptr inbounds nuw %struct.H5G_dense_bt2_name_rec_t, ptr %42, i32 0, i32 1
  %44 = load i32, ptr %43, align 4, !tbaa !23
  %45 = lshr i32 %44, 16
  %46 = and i32 %45, 255
  %47 = trunc i32 %46 to i8
  %48 = load ptr, ptr %4, align 8, !tbaa !43
  store i8 %47, ptr %48, align 1, !tbaa !44
  %49 = load ptr, ptr %4, align 8, !tbaa !43
  %50 = getelementptr inbounds nuw i8, ptr %49, i32 1
  store ptr %50, ptr %4, align 8, !tbaa !43
  %51 = load ptr, ptr %7, align 8, !tbaa !9
  %52 = getelementptr inbounds nuw %struct.H5G_dense_bt2_name_rec_t, ptr %51, i32 0, i32 1
  %53 = load i32, ptr %52, align 4, !tbaa !23
  %54 = lshr i32 %53, 24
  %55 = and i32 %54, 255
  %56 = trunc i32 %55 to i8
  %57 = load ptr, ptr %4, align 8, !tbaa !43
  store i8 %56, ptr %57, align 1, !tbaa !44
  %58 = load ptr, ptr %4, align 8, !tbaa !43
  %59 = getelementptr inbounds nuw i8, ptr %58, i32 1
  store ptr %59, ptr %4, align 8, !tbaa !43
  br label %60

60:                                               ; preds = %24
  br label %61

61:                                               ; preds = %60
  %62 = load ptr, ptr %4, align 8, !tbaa !43
  %63 = load ptr, ptr %7, align 8, !tbaa !9
  %64 = getelementptr inbounds nuw %struct.H5G_dense_bt2_name_rec_t, ptr %63, i32 0, i32 0
  %65 = getelementptr inbounds [7 x i8], ptr %64, i64 0, i64 0
  call void @llvm.memcpy.p0.p0.i64(ptr align 1 %62, ptr align 4 %65, i64 7, i1 false)
  br label %66

66:                                               ; preds = %61, %15
  call void @llvm.lifetime.end.p0(i64 8, ptr %7) #7
  ret i32 0
}