; Function Attrs: mustprogress nofree norecurse nosync nounwind willreturn memory(read, argmem: readwrite, inaccessiblemem: none) uwtable
define internal noundef i32 @H5G__dense_btree2_name_encode(ptr noundef writeonly captures(none) %0, ptr noundef readonly captures(none) %1, ptr readnone captures(none) %2) #0 {
  %4 = load i8, ptr @H5G_init_g, align 1, !tbaa !3, !range !7, !noundef !8
  %5 = trunc nuw i8 %4 to i1
  %6 = load i8, ptr @H5_libterm_g, align 1, !range !7
  %7 = trunc nuw i8 %6 to i1
  %8 = xor i1 %7, true
  %9 = select i1 %5, i1 true, i1 %8
  br i1 %9, label %10, label %27, !prof !9

10:                                               ; preds = %3
  %11 = getelementptr inbounds nuw i8, ptr %1, i64 8
  %12 = load i32, ptr %11, align 4, !tbaa !19
  %13 = trunc i32 %12 to i8
  store i8 %13, ptr %0, align 1, !tbaa !35
  %14 = getelementptr inbounds nuw i8, ptr %0, i64 1
  %15 = load i32, ptr %11, align 4, !tbaa !19
  %16 = lshr i32 %15, 8
  %17 = trunc i32 %16 to i8
  store i8 %17, ptr %14, align 1, !tbaa !35
  %18 = getelementptr inbounds nuw i8, ptr %0, i64 2
  %19 = load i32, ptr %11, align 4, !tbaa !19
  %20 = lshr i32 %19, 16
  %21 = trunc i32 %20 to i8
  store i8 %21, ptr %18, align 1, !tbaa !35
  %22 = getelementptr inbounds nuw i8, ptr %0, i64 3
  %23 = load i32, ptr %11, align 4, !tbaa !19
  %24 = lshr i32 %23, 24
  %25 = trunc nuw i32 %24 to i8
  store i8 %25, ptr %22, align 1, !tbaa !35
  %26 = getelementptr inbounds nuw i8, ptr %0, i64 4
  tail call void @llvm.memcpy.p0.p0.i64(ptr noundef nonnull align 1 dereferenceable(7) %26, ptr noundef nonnull align 4 dereferenceable(7) %1, i64 7, i1 false)
  br label %27

27:                                               ; preds = %10, %3
  ret i32 0
}